; Function Attrs: nounwind uwtable
define dso_local void @pgstat_report_bgwriter() local_unnamed_addr #0 {
  %1 = load ptr, ptr @pgStatLocal, align 8
  br label %2

2:                                                ; preds = %2, %0
  %.2.idx3.i = phi i64 [ 0, %0 ], [ %.2.add.i, %2 ]
  %.2.ptr.ptr.i = getelementptr inbounds nuw i8, ptr @PendingBgWriterStats, i64 %.2.idx3.i
  %3 = load i64, ptr %.2.ptr.ptr.i, align 8
  %.not44.i = icmp eq i64 %3, 0
  %.2.add.i = add nuw nsw i64 %.2.idx3.i, 8
  %4 = icmp samesign ult i64 %.2.idx3.i, 24
  %or.cond.i = select i1 %.not44.i, i1 %4, i1 false
  br i1 %or.cond.i, label %2, label %pg_memory_is_all_zeros.exit, !llvm.loop !4

pg_memory_is_all_zeros.exit:                      ; preds = %2
  br i1 %.not44.i, label %27, label %5

5:                                                ; preds = %pg_memory_is_all_zeros.exit
  %6 = getelementptr inbounds nuw i8, ptr %1, i64 344
  %7 = load volatile i32, ptr @CritSectionCount, align 4
  %8 = add i32 %7, 1
  store volatile i32 %8, ptr @CritSectionCount, align 4
  %9 = load i32, ptr %6, align 4
  %10 = add i32 %9, 1
  store i32 %10, ptr %6, align 4
  tail call void asm sideeffect "", "~{memory},~{dirflag},~{fpsr},~{flags}"() #4, !srcloc !6
  %11 = load i64, ptr @PendingBgWriterStats, align 8
  %12 = getelementptr inbounds nuw i8, ptr %1, i64 352
  %13 = load i64, ptr %12, align 8
  %14 = add i64 %13, %11
  store i64 %14, ptr %12, align 8
  %15 = load i64, ptr getelementptr inbounds nuw (i8, ptr @PendingBgWriterStats, i64 8), align 8
  %16 = getelementptr inbounds nuw i8, ptr %1, i64 360
  %17 = load i64, ptr %16, align 8
  %18 = add i64 %17, %15
  store i64 %18, ptr %16, align 8
  %19 = load i64, ptr getelementptr inbounds nuw (i8, ptr @PendingBgWriterStats, i64 16), align 8
  %20 = getelementptr inbounds nuw i8, ptr %1, i64 368
  %21 = load i64, ptr %20, align 8
  %22 = add i64 %21, %19
  store i64 %22, ptr %20, align 8
  tail call void asm sideeffect "", "~{memory},~{dirflag},~{fpsr},~{flags}"() #4, !srcloc !7
  %23 = load i32, ptr %6, align 4
  %24 = add i32 %23, 1
  store i32 %24, ptr %6, align 4
  %25 = load volatile i32, ptr @CritSectionCount, align 4
  %26 = add i32 %25, -1
  store volatile i32 %26, ptr @CritSectionCount, align 4
  tail call void @llvm.memset.p0.i64(ptr noundef nonnull align 8 dereferenceable(32) @PendingBgWriterStats, i8 0, i64 32, i1 false)
  tail call void @pgstat_flush_io(i1 noundef zeroext false) #4
  br label %27

27:                                               ; preds = %pg_memory_is_all_zeros.exit, %5
  ret void
}